Certificate:
    Data:
        Version: 3 (0x2)
        Serial Number: 1 (0x1)
        Signature Algorithm: sha512WithRSAEncryption
        Issuer: C=US, ST=WASHINGTON, L=SEATTLE, O=THE SUPERTASK
        Validity
            Not Before: Mar  2 07:39:29 2021 GMT
            Not After : Mar  2 07:39:29 2022 GMT
        Subject: C=US, ST=WASHINGTON, O=THE SUPERTASK, CN=Alpine 3-10 Intermediate CA/emailAddress=allen@thesupertask.com
        Subject Public Key Info:
            Public Key Algorithm: rsaEncryption
                RSA Public-Key: (4096 bit)
                Modulus:
                    00:d4:9b:45:55:a0:3e:e5:f1:18:00:55:73:92:fb:
                    33:fc:76:2b:19:61:74:13:03:d4:cf:d9:03:82:2c:
                    d5:fe:3e:5a:13:05:41:d3:ec:5b:2a:7c:67:ae:e0:
                    82:16:d1:53:cc:c0:d9:cd:32:dd:52:0a:77:56:cb:
                    2c:ca:c2:22:e2:76:b7:ec:43:bd:cc:cc:3b:07:4f:
                    bc:7a:18:c0:8c:35:cf:3a:15:07:71:bc:87:32:8a:
                    0e:1c:d6:7e:2c:b1:ad:1f:93:44:9a:97:50:c6:2d:
                    b8:8d:cd:c5:f4:dc:cb:59:d3:8b:61:73:71:fb:51:
                    4e:f3:56:ef:27:27:b7:ba:e1:2f:dc:e3:50:a5:98:
                    5a:60:df:23:e4:72:40:e2:fe:68:bb:b7:e4:06:c2:
                    59:5d:ea:1f:70:5f:18:72:16:c8:ff:3f:78:e2:be:
                    8c:08:26:4d:c7:12:ab:7d:5a:76:2c:2e:ed:3c:5f:
                    52:1d:0b:95:88:76:41:68:61:38:ec:24:df:6c:d8:
                    48:f6:5e:0f:1b:7e:4e:c8:6e:45:3a:29:73:32:83:
                    ab:8f:c9:76:0e:3c:18:f6:f9:61:12:95:fd:17:f2:
                    69:d1:9f:df:42:1b:8f:2f:1c:cd:57:cf:36:a1:e4:
                    26:91:e5:c5:1a:6c:f6:6e:47:ff:94:0a:d4:56:72:
                    c9:1b:16:b0:8a:5b:e2:0a:58:f6:de:d3:8c:e9:93:
                    c5:7f:8c:b5:50:fd:08:25:9a:46:f8:71:5a:3e:62:
                    71:ed:da:43:89:96:d8:48:97:67:e9:3d:99:0c:92:
                    1a:74:e1:0c:fa:b3:64:40:c9:8c:8d:f1:4b:56:89:
                    2f:d9:df:77:9a:92:b4:e2:ad:4e:de:7f:b9:49:e3:
                    97:b7:9c:98:4b:1c:a8:33:44:b1:d9:d3:6f:06:0d:
                    fe:09:e0:8c:a3:c4:1b:9e:a5:62:58:87:51:f1:2a:
                    a2:56:c3:45:08:64:f4:29:24:fd:f8:8a:72:17:1f:
                    03:aa:50:62:fa:95:e2:c5:0b:5a:9c:dc:76:79:ee:
                    d4:9a:1c:94:98:01:a8:7c:4d:df:82:0a:0a:66:99:
                    4f:86:d3:b6:6a:7e:69:05:c0:7e:47:15:23:0b:ed:
                    5e:ea:9b:36:62:cc:d6:be:25:66:70:57:1e:73:24:
                    86:80:3d:c8:76:b4:19:d7:03:44:95:12:f7:14:55:
                    0a:2f:1c:57:3a:05:49:bc:95:91:7f:96:53:60:48:
                    f0:bd:4e:95:45:d6:c8:bb:90:8e:df:a9:40:6e:11:
                    1f:9b:ca:97:b4:8b:ef:8d:cc:d4:df:04:63:d9:59:
                    f4:4c:a2:39:68:71:fc:4f:ad:51:7d:3a:48:1d:eb:
                    33:d6:81
                Exponent: 65537 (0x10001)
        X509v3 extensions:
            X509v3 Subject Key Identifier: 
                52:A0:77:6C:7F:D1:E5:36:51:AE:2E:D1:C7:FA:79:61:A0:A8:64:AD
            X509v3 Authority Key Identifier: 
                keyid:05:D1:BE:47:D1:49:70:C5:FA:0E:A0:5F:E2:13:0A:83:B6:B6:AF:F6

            X509v3 Basic Constraints: critical
                CA:TRUE, pathlen:0
    Signature Algorithm: sha512WithRSAEncryption
         4c:3f:14:c7:d3:1a:62:40:8d:8d:f2:61:a3:b1:70:3c:08:eb:
         66:cb:89:48:7d:12:40:83:23:4b:c4:73:b2:a4:ba:2c:e8:50:
         4e:65:f0:9a:ef:7b:44:86:a1:5a:0c:0b:e9:14:7d:61:a9:2b:
         55:59:d5:98:5b:ea:91:79:5c:53:b0:3a:83:a9:db:c1:39:3b:
         eb:74:ee:3c:a9:1f:b9:1c:3e:96:bb:c7:6b:b7:3b:99:92:74:
         7f:3c:d1:e6:9a:52:c7:ae:ef:83:90:eb:8d:da:a6:50:a6:62:
         73:65:40:34:40:05:2a:a2:f1:0e:ed:80:e6:c6:fe:4c:7e:7b:
         1a:c7:ca:ae:4b:1f:9e:0a:7c:82:80:44:7a:94:b8:7a:b5:7c:
         57:8d:fd:1a:8b:1c:1c:08:ec:eb:83:80:21:35:08:c6:2c:cb:
         58:92:93:6c:1b:90:c1:d8:14:94:9b:98:9e:ec:99:ce:50:76:
         e8:b8:64:d4:ac:5c:c6:70:c2:a3:e2:e6:11:4e:af:6a:b1:15:
         00:68:a9:76:b6:a3:ec:46:af:47:06:c3:d5:cb:90:c6:31:fb:
         91:42:7d:22:48:c4:ec:eb:63:f8:70:de:3c:be:41:f6:cb:00:
         0c:a3:87:85:38:d0:9e:44:94:6c:f4:5f:41:81:29:7d:7a:26:
         2f:23:42:cb:fa:8d:91:0a:e8:24:42:54:88:2f:08:e0:53:9d:
         7e:b6:57:76:ee:c3:2d:6a:04:54:10:93:75:95:98:03:87:e7:
         34:59:57:4d:75:9d:7c:b0:d5:2a:86:18:c5:45:6e:36:80:f4:
         ae:0b:ab:ad:3d:94:b9:82:fa:4d:63:c4:b0:64:de:40:12:83:
         1d:aa:22:b4:c2:2e:21:a3:d0:77:ce:17:8f:16:5e:e8:21:ca:
         67:b3:6e:73:45:7e:b3:9b:94:ab:0b:24:32:00:fa:fc:32:e8:
         81:9a:b8:4b:d9:8e:9d:df:a8:d9:be:e3:43:f7:b7:7f:cd:55:
         b3:72:55:b5:8b:09:0d:95:06:fb:54:34:1d:d8:4f:33:06:f3:
         6b:bb:4b:c8:81:a0:1b:fb:86:b4:3c:71:1b:16:64:61:bb:dc:
         32:3f:25:af:6e:ec:9a:15:02:23:c6:05:fb:63:97:91:79:bb:
         96:2f:80:1c:2b:b5:4e:1e:61:23:d5:18:b7:4b:11:27:43:93:
         99:b3:da:0a:93:15:9a:c6:3d:94:21:30:46:42:43:ee:0a:4c:
         85:ba:75:fe:04:e1:11:0b:3f:94:a5:b9:4b:fe:37:0b:08:25:
         b5:3e:53:23:35:b8:cd:e2:e5:04:d5:a5:12:99:46:9f:fc:38:
         e8:52:81:dd:b8:f0:18:a8
-----BEGIN CERTIFICATE-----
MIIFpTCCA42gAwIBAgIBATANBgkqhkiG9w0BAQ0FADBMMQswCQYDVQQGEwJVUzET
MBEGA1UECAwKV0FTSElOR1RPTjEQMA4GA1UEBwwHU0VBVFRMRTEWMBQGA1UECgwN
VEhFIFNVUEVSVEFTSzAeFw0yMTAzMDIwNzM5MjlaFw0yMjAzMDIwNzM5MjlaMIGH
MQswCQYDVQQGEwJVUzETMBEGA1UECAwKV0FTSElOR1RPTjEWMBQGA1UECgwNVEhF
IFNVUEVSVEFTSzEkMCIGA1UEAwwbQWxwaW5lIDMtMTAgSW50ZXJtZWRpYXRlIENB
MSUwIwYJKoZIhvcNAQkBFhZhbGxlbkB0aGVzdXBlcnRhc2suY29tMIICIjANBgkq
hkiG9w0BAQEFAAOCAg8AMIICCgKCAgEA1JtFVaA+5fEYAFVzkvsz/HYrGWF0EwPU
z9kDgizV/j5aEwVB0+xbKnxnruCCFtFTzMDZzTLdUgp3VsssysIi4na37EO9zMw7
B0+8ehjAjDXPOhUHcbyHMooOHNZ+LLGtH5NEmpdQxi24jc3F9NzLWdOLYXNx+1FO
81bvJye3uuEv3ONQpZhaYN8j5HJA4v5ou7fkBsJZXeofcF8YchbI/z944r6MCCZN
xxKrfVp2LC7tPF9SHQuViHZBaGE47CTfbNhI9l4PG35OyG5FOilzMoOrj8l2DjwY
9vlhEpX9F/Jp0Z/fQhuPLxzNV882oeQmkeXFGmz2bkf/lArUVnLJGxawilviClj2
3tOM6ZPFf4y1UP0IJZpG+HFaPmJx7dpDiZbYSJdn6T2ZDJIadOEM+rNkQMmMjfFL
Vokv2d93mpK04q1O3n+5SeOXt5yYSxyoM0Sx2dNvBg3+CeCMo8QbnqViWIdR8Sqi
VsNFCGT0KST9+IpyFx8DqlBi+pXixQtanNx2ee7UmhyUmAGofE3fggoKZplPhtO2
an5pBcB+RxUjC+1e6ps2YszWviVmcFcecySGgD3IdrQZ1wNElRL3FFUKLxxXOgVJ
vJWRf5ZTYEjwvU6VRdbIu5CO36lAbhEfm8qXtIvvjczU3wRj2Vn0TKI5aHH8T61R
fTpIHesz1oECAwEAAaNWMFQwHQYDVR0OBBYEFFKgd2x/0eU2Ua4u0cf6eWGgqGSt
MB8GA1UdIwQYMBaAFAXRvkfRSXDF+g6gX+ITCoO2tq/2MBIGA1UdEwEB/wQIMAYB
Af8CAQAwDQYJKoZIhvcNAQENBQADggIBAEw/FMfTGmJAjY3yYaOxcDwI62bLiUh9
EkCDI0vEc7KkuizoUE5l8Jrve0SGoVoMC+kUfWGpK1VZ1Zhb6pF5XFOwOoOp28E5
O+t07jypH7kcPpa7x2u3O5mSdH880eaaUseu74OQ643aplCmYnNlQDRABSqi8Q7t
gObG/kx+exrHyq5LH54KfIKARHqUuHq1fFeN/RqLHBwI7OuDgCE1CMYsy1iSk2wb
kMHYFJSbmJ7smc5Qdui4ZNSsXMZwwqPi5hFOr2qxFQBoqXa2o+xGr0cGw9XLkMYx
+5FCfSJIxOzrY/hw3jy+QfbLAAyjh4U40J5ElGz0X0GBKX16Ji8jQsv6jZEK6CRC
VIgvCOBTnX62V3buwy1qBFQQk3WVmAOH5zRZV011nXyw1SqGGMVFbjaA9K4Lq609
lLmC+k1jxLBk3kASgx2qIrTCLiGj0HfOF48WXughymezbnNFfrOblKsLJDIA+vwy
6IGauEvZjp3fqNm+40P3t3/NVbNyVbWLCQ2VBvtUNB3YTzMG82u7S8iBoBv7hrQ8
cRsWZGG73DI/Ja9u7JoVAiPGBftjl5F5u5YvgBwrtU4eYSPVGLdLESdDk5mz2gqT
FZrGPZQhMEZCQ+4KTIW6df4E4RELP5SluUv+NwsIJbU+UyM1uM3i5QTVpRKZRp/8
OOhSgd248Bio
-----END CERTIFICATE-----
